target datalayout = "e-m:e-p270:32:32-p271:32:32-p272:64:64-i64:64-i128:128-f80:128-n8:16:32:64-S128"
target triple = "x86_64-pc-linux-gnu"

%struct.tm = type { i32, i32, i32, i32, i32, i32, i32, i32, i32, i64, ptr }
%union.un_fmt_comb = type { ptr }
%struct.anon = type { ptr, i32 }

@pgtypes_date_weekdays_short = external global [0 x ptr], align 8
@months = external global [0 x ptr], align 8
@.str.6 = private unnamed_addr constant [2 x i8] c" \00", align 1
@.str.7 = private unnamed_addr constant [3 x i8] c"%u\00", align 1
@.str.8 = private unnamed_addr constant [5 x i8] c"%02u\00", align 1
@.str.9 = private unnamed_addr constant [5 x i8] c"%04u\00", align 1

; Function Attrs: nounwind uwtable
define i32 @PGTYPESdate_dayofweek(i64 noundef %0) #0 {
  %2 = alloca i64, align 8
  store i64 %0, ptr %2, align 8
  %3 = load i64, ptr %2, align 8
  %4 = call i32 @date2j(i32 noundef 2000, i32 noundef 1, i32 noundef 1)
  %5 = sext i32 %4 to i64
  %6 = add i64 %3, %5
  %7 = add i64 %6, 1
  %8 = trunc i64 %7 to i32
  %9 = srem i32 %8, 7
  ret i32 %9
}

; Function Attrs: nounwind uwtable
define i32 @PGTYPESdate_fmt_asc(i64 noundef %0, ptr noundef %1, ptr noundef %2) #0 {
  %4 = alloca i32, align 4
  %5 = alloca i64, align 8
  %6 = alloca ptr, align 8
  %7 = alloca ptr, align 8
  %8 = alloca %union.un_fmt_comb, align 8
  %9 = alloca i32, align 4
  %10 = alloca i32, align 4
  %11 = alloca i32, align 4
  %12 = alloca ptr, align 8
  %13 = alloca %struct.tm, align 8
  %14 = alloca ptr, align 8
  %15 = alloca i32, align 4
  %16 = alloca ptr, align 8
  %17 = alloca ptr, align 8
  store i64 %0, ptr %5, align 8
  store ptr %1, ptr %6, align 8
  store ptr %2, ptr %7, align 8
  call void @llvm.lifetime.start.p0(i64 8, ptr %8) #7
  call void @llvm.lifetime.start.p0(i64 4, ptr %9) #7
  call void @llvm.lifetime.start.p0(i64 4, ptr %10) #7
  call void @llvm.lifetime.start.p0(i64 4, ptr %11) #7
  call void @llvm.lifetime.start.p0(i64 8, ptr %12) #7
  call void @llvm.lifetime.start.p0(i64 56, ptr %13) #7
  %18 = load ptr, ptr %7, align 8
  %19 = load ptr, ptr %6, align 8
  %20 = call ptr @strcpy(ptr noundef %18, ptr noundef %19) #7
  %21 = load i64, ptr %5, align 8
  %22 = call i32 @date2j(i32 noundef 2000, i32 noundef 1, i32 noundef 1)
  %23 = sext i32 %22 to i64
  %24 = add i64 %21, %23
  %25 = trunc i64 %24 to i32
  %26 = getelementptr inbounds nuw %struct.tm, ptr %13, i32 0, i32 5
  %27 = getelementptr inbounds nuw %struct.tm, ptr %13, i32 0, i32 4
  %28 = getelementptr inbounds nuw %struct.tm, ptr %13, i32 0, i32 3
  call void @j2date(i32 noundef %25, ptr noundef %26, ptr noundef %27, ptr noundef %28)
  %29 = load i64, ptr %5, align 8
  %30 = call i32 @PGTYPESdate_dayofweek(i64 noundef %29)
  store i32 %30, ptr %11, align 4
  store i32 0, ptr %10, align 4
  br label %31

31:                                               ; preds = %146, %3
  %32 = load i32, ptr %10, align 4
  %33 = sext i32 %32 to i64
  %34 = getelementptr inbounds [7 x %struct.anon], ptr @PGTYPESdate_fmt_asc.mapping, i64 0, i64 %33
  %35 = getelementptr inbounds nuw %struct.anon, ptr %34, i32 0, i32 0
  %36 = load ptr, ptr %35, align 16
  %37 = icmp ne ptr %36, null
  br i1 %37, label %38, label %149

38:                                               ; preds = %31
  br label %39

39:                                               ; preds = %144, %38
  %40 = load ptr, ptr %7, align 8
  %41 = load i32, ptr %10, align 4
  %42 = sext i32 %41 to i64
  %43 = getelementptr inbounds [7 x %struct.anon], ptr @PGTYPESdate_fmt_asc.mapping, i64 0, i64 %42
  %44 = getelementptr inbounds nuw %struct.anon, ptr %43, i32 0, i32 0
  %45 = load ptr, ptr %44, align 16
  %46 = call ptr @strstr(ptr noundef %40, ptr noundef %45) #9
  store ptr %46, ptr %12, align 8
  %47 = icmp ne ptr %46, null
  br i1 %47, label %48, label %145

48:                                               ; preds = %39
  %49 = load i32, ptr %10, align 4
  %50 = sext i32 %49 to i64
  %51 = getelementptr inbounds [7 x %struct.anon], ptr @PGTYPESdate_fmt_asc.mapping, i64 0, i64 %50
  %52 = getelementptr inbounds nuw %struct.anon, ptr %51, i32 0, i32 1
  %53 = load i32, ptr %52, align 8
  switch i32 %53, label %79 [
    i32 2, label %54
    i32 1, label %59
    i32 4, label %62
    i32 3, label %69
    i32 6, label %72
    i32 5, label %75
  ]

54:                                               ; preds = %48
  %55 = load i32, ptr %11, align 4
  %56 = sext i32 %55 to i64
  %57 = getelementptr inbounds [0 x ptr], ptr @pgtypes_date_weekdays_short, i64 0, i64 %56
  %58 = load ptr, ptr %57, align 8
  store ptr %58, ptr %8, align 8
  store i32 2, ptr %9, align 4
  br label %80

59:                                               ; preds = %48
  %60 = getelementptr inbounds nuw %struct.tm, ptr %13, i32 0, i32 3
  %61 = load i32, ptr %60, align 4
  store i32 %61, ptr %8, align 8
  store i32 7, ptr %9, align 4
  br label %80

62:                                               ; preds = %48
  %63 = getelementptr inbounds nuw %struct.tm, ptr %13, i32 0, i32 4
  %64 = load i32, ptr %63, align 8
  %65 = sub i32 %64, 1
  %66 = sext i32 %65 to i64
  %67 = getelementptr inbounds [0 x ptr], ptr @months, i64 0, i64 %66
  %68 = load ptr, ptr %67, align 8
  store ptr %68, ptr %8, align 8
  store i32 2, ptr %9, align 4
  br label %80

69:                                               ; preds = %48
  %70 = getelementptr inbounds nuw %struct.tm, ptr %13, i32 0, i32 4
  %71 = load i32, ptr %70, align 8
  store i32 %71, ptr %8, align 8
  store i32 7, ptr %9, align 4
  br label %80

72:                                               ; preds = %48
  %73 = getelementptr inbounds nuw %struct.tm, ptr %13, i32 0, i32 5
  %74 = load i32, ptr %73, align 4
  store i32 %74, ptr %8, align 8
  store i32 10, ptr %9, align 4
  br label %80

75:                                               ; preds = %48
  %76 = getelementptr inbounds nuw %struct.tm, ptr %13, i32 0, i32 5
  %77 = load i32, ptr %76, align 4
  %78 = srem i32 %77, 100
  store i32 %78, ptr %8, align 8
  store i32 7, ptr %9, align 4
  br label %80

79:                                               ; preds = %48
  store ptr @.str.6, ptr %8, align 8
  store i32 2, ptr %9, align 4
  br label %80

80:                                               ; preds = %79, %75, %72, %69, %62, %59, %54
  %81 = load i32, ptr %9, align 4
  switch i32 %81, label %143 [
    i32 1, label %82
    i32 2, label %82
    i32 6, label %92
    i32 7, label %109
    i32 10, label %126
  ]

82:                                               ; preds = %80, %80
  %83 = load ptr, ptr %12, align 8
  %84 = load ptr, ptr %8, align 8
  %85 = load ptr, ptr %8, align 8
  %86 = call i64 @strlen(ptr noundef %85) #9
  call void @llvm.memcpy.p0.p0.i64(ptr align 1 %83, ptr align 1 %84, i64 %86, i1 false)
  %87 = load i32, ptr %9, align 4
  %88 = icmp eq i32 %87, 1
  br i1 %88, label %89, label %91

89:                                               ; preds = %82
  %90 = load ptr, ptr %8, align 8
  call void @free(ptr noundef %90) #7
  br label %91

91:                                               ; preds = %89, %82
  br label %144

92:                                               ; preds = %80
  call void @llvm.lifetime.start.p0(i64 8, ptr %14) #7
  %93 = call ptr @pgtypes_alloc(i64 noundef 20)
  store ptr %93, ptr %14, align 8
  %94 = load ptr, ptr %14, align 8
  %95 = icmp ne ptr %94, null
  br i1 %95, label %97, label %96

96:                                               ; preds = %92
  store i32 -1, ptr %4, align 4
  store i32 1, ptr %15, align 4
  br label %106

97:                                               ; preds = %92
  %98 = load ptr, ptr %14, align 8
  %99 = load i32, ptr %8, align 8
  %100 = call i32 (ptr, i64, ptr, ...) @pg_snprintf(ptr noundef %98, i64 noundef 20, ptr noundef @.str.7, i32 noundef %99)
  %101 = load ptr, ptr %12, align 8
  %102 = load ptr, ptr %14, align 8
  %103 = load ptr, ptr %14, align 8
  %104 = call i64 @strlen(ptr noundef %103) #9
  call void @llvm.memcpy.p0.p0.i64(ptr align 1 %101, ptr align 1 %102, i64 %104, i1 false)
  %105 = load ptr, ptr %14, align 8
  call void @free(ptr noundef %105) #7
  store i32 0, ptr %15, align 4
  br label %106

106:                                              ; preds = %97, %96
  call void @llvm.lifetime.end.p0(i64 8, ptr %14) #7
  %107 = load i32, ptr %15, align 4
  switch i32 %107, label %150 [
    i32 0, label %108
  ]

108:                                              ; preds = %106
  br label %144

109:                                              ; preds = %80
  call void @llvm.lifetime.start.p0(i64 8, ptr %16) #7
  %110 = call ptr @pgtypes_alloc(i64 noundef 20)
  store ptr %110, ptr %16, align 8
  %111 = load ptr, ptr %16, align 8
  %112 = icmp ne ptr %111, null
  br i1 %112, label %114, label %113

113:                                              ; preds = %109
  store i32 -1, ptr %4, align 4
  store i32 1, ptr %15, align 4
  br label %123

114:                                              ; preds = %109
  %115 = load ptr, ptr %16, align 8
  %116 = load i32, ptr %8, align 8
  %117 = call i32 (ptr, i64, ptr, ...) @pg_snprintf(ptr noundef %115, i64 noundef 20, ptr noundef @.str.8, i32 noundef %116)
  %118 = load ptr, ptr %12, align 8
  %119 = load ptr, ptr %16, align 8
  %120 = load ptr, ptr %16, align 8
  %121 = call i64 @strlen(ptr noundef %120) #9
  call void @llvm.memcpy.p0.p0.i64(ptr align 1 %118, ptr align 1 %119, i64 %121, i1 false)
  %122 = load ptr, ptr %16, align 8
  call void @free(ptr noundef %122) #7
  store i32 0, ptr %15, align 4
  br label %123

123:                                              ; preds = %114, %113
  call void @llvm.lifetime.end.p0(i64 8, ptr %16) #7
  %124 = load i32, ptr %15, align 4
  switch i32 %124, label %150 [
    i32 0, label %125
  ]

125:                                              ; preds = %123
  br label %144

126:                                              ; preds = %80
  call void @llvm.lifetime.start.p0(i64 8, ptr %17) #7
  %127 = call ptr @pgtypes_alloc(i64 noundef 20)
  store ptr %127, ptr %17, align 8
  %128 = load ptr, ptr %17, align 8
  %129 = icmp ne ptr %128, null
  br i1 %129, label %131, label %130

130:                                              ; preds = %126
  store i32 -1, ptr %4, align 4
  store i32 1, ptr %15, align 4
  br label %140

131:                                              ; preds = %126
  %132 = load ptr, ptr %17, align 8
  %133 = load i32, ptr %8, align 8
  %134 = call i32 (ptr, i64, ptr, ...) @pg_snprintf(ptr noundef %132, i64 noundef 20, ptr noundef @.str.9, i32 noundef %133)
  %135 = load ptr, ptr %12, align 8
  %136 = load ptr, ptr %17, align 8
  %137 = load ptr, ptr %17, align 8
  %138 = call i64 @strlen(ptr noundef %137) #9
  call void @llvm.memcpy.p0.p0.i64(ptr align 1 %135, ptr align 1 %136, i64 %138, i1 false)
  %139 = load ptr, ptr %17, align 8
  call void @free(ptr noundef %139) #7
  store i32 0, ptr %15, align 4
  br label %140

140:                                              ; preds = %131, %130
  call void @llvm.lifetime.end.p0(i64 8, ptr %17) #7
  %141 = load i32, ptr %15, align 4
  switch i32 %141, label %150 [
    i32 0, label %142
  ]

142:                                              ; preds = %140
  br label %144

143:                                              ; preds = %80
  br label %144

144:                                              ; preds = %143, %142, %125, %108, %91
  br label %39, !llvm.loop !5

145:                                              ; preds = %39
  br label %146

146:                                              ; preds = %145
  %147 = load i32, ptr %10, align 4
  %148 = add i32 %147, 1
  store i32 %148, ptr %10, align 4
  br label %31, !llvm.loop !7

149:                                              ; preds = %31
  store i32 0, ptr %4, align 4
  store i32 1, ptr %15, align 4
  br label %150

150:                                              ; preds = %149, %140, %123, %106
  call void @llvm.lifetime.end.p0(i64 56, ptr %13) #7
  call void @llvm.lifetime.end.p0(i64 8, ptr %12) #7
  call void @llvm.lifetime.end.p0(i64 4, ptr %11) #7
  call void @llvm.lifetime.end.p0(i64 4, ptr %10) #7
  call void @llvm.lifetime.end.p0(i64 4, ptr %9) #7
  call void @llvm.lifetime.end.p0(i64 8, ptr %8) #7
  %151 = load i32, ptr %4, align 4
  ret i32 %151
}