; Function Attrs: nounwind uwtable
define range(i32 -1, 1) i32 @PGTYPESdate_fmt_asc(i64 noundef %0, ptr noundef readonly captures(none) %1, ptr noundef %2) local_unnamed_addr #0 {
  %4 = alloca %struct.tm, align 8
  call void @llvm.lifetime.start.p0(i64 56, ptr nonnull %4) #12
  %5 = tail call ptr @strcpy(ptr noundef nonnull dereferenceable(1) %2, ptr noundef nonnull dereferenceable(1) %1) #12
  %6 = tail call i32 @date2j(i32 noundef 2000, i32 noundef 1, i32 noundef 1) #12
  %7 = trunc i64 %0 to i32
  %8 = add i32 %6, %7
  %9 = getelementptr inbounds nuw i8, ptr %4, i64 20
  %10 = getelementptr inbounds nuw i8, ptr %4, i64 16
  %11 = getelementptr inbounds nuw i8, ptr %4, i64 12
  call void @j2date(i32 noundef %8, ptr noundef nonnull %9, ptr noundef nonnull %10, ptr noundef nonnull %11) #12
  %12 = call i32 @date2j(i32 noundef 2000, i32 noundef 1, i32 noundef 1) #12
  %13 = add i32 %7, 1
  %14 = add i32 %13, %12
  %15 = srem i32 %14, 7
  %16 = sext i32 %15 to i64
  %17 = getelementptr inbounds [0 x ptr], ptr @pgtypes_date_weekdays_short, i64 0, i64 %16
  br label %.preheader

.preheader:                                       ; preds = %3, %._crit_edge
  %indvars.iv = phi i64 [ 0, %3 ], [ %indvars.iv.next, %._crit_edge ]
  %18 = phi ptr [ @.str, %3 ], [ %59, %._crit_edge ]
  %19 = phi ptr [ @PGTYPESdate_fmt_asc.mapping, %3 ], [ %58, %._crit_edge ]
  %.sroa.0.086 = phi ptr [ undef, %3 ], [ %.sroa.0.1.lcssa, %._crit_edge ]
  %20 = call ptr @strstr(ptr noundef nonnull dereferenceable(1) %2, ptr noundef nonnull dereferenceable(1) %18) #14
  %.not6383 = icmp eq ptr %20, null
  br i1 %.not6383, label %._crit_edge, label %.lr.ph

.lr.ph:                                           ; preds = %.preheader
  %21 = getelementptr inbounds nuw i8, ptr %19, i64 8
  %22 = load i32, ptr %21, align 8
  br label %23

23:                                               ; preds = %.lr.ph, %56
  %24 = phi ptr [ %20, %.lr.ph ], [ %57, %56 ]
  %.sroa.0.184 = phi ptr [ %.sroa.0.086, %.lr.ph ], [ %.sroa.0.274, %56 ]
  switch i32 %22, label %40 [
    i32 2, label %25
    i32 1, label %27
    i32 4, label %29
    i32 3, label %35
    i32 6, label %48
    i32 5, label %37
  ]

25:                                               ; preds = %23
  %26 = load ptr, ptr %17, align 8
  br label %40

27:                                               ; preds = %23
  %28 = load i32, ptr %11, align 4
  br label %42

29:                                               ; preds = %23
  %30 = load i32, ptr %10, align 8
  %31 = add i32 %30, -1
  %32 = sext i32 %31 to i64
  %33 = getelementptr inbounds [0 x ptr], ptr @months, i64 0, i64 %32
  %34 = load ptr, ptr %33, align 8
  br label %40

35:                                               ; preds = %23
  %36 = load i32, ptr %10, align 8
  br label %42

37:                                               ; preds = %23
  %38 = load i32, ptr %9, align 4
  %39 = srem i32 %38, 100
  br label %42

40:                                               ; preds = %29, %25, %23
  %.sroa.0.2.ph = phi ptr [ @.str.6, %23 ], [ %26, %25 ], [ %34, %29 ]
  %41 = call i64 @strlen(ptr noundef nonnull dereferenceable(1) %.sroa.0.2.ph) #14
  call void @llvm.memcpy.p0.p0.i64(ptr nonnull align 1 %24, ptr nonnull align 1 %.sroa.0.2.ph, i64 %41, i1 false)
  br label %56

42:                                               ; preds = %37, %35, %27
  %.sink90 = phi i32 [ %39, %37 ], [ %36, %35 ], [ %28, %27 ]
  %43 = call ptr @pgtypes_alloc(i64 noundef 20) #12
  %.not65.not = icmp eq ptr %43, null
  br i1 %.not65.not, label %.critedge, label %44

44:                                               ; preds = %42
  %45 = ptrtoint ptr %.sroa.0.184 to i64
  %.sroa.0.0.insert.mask42 = and i64 %45, -4294967296
  %.sroa.0.0.insert.ext41 = zext i32 %.sink90 to i64
  %.sroa.0.0.insert.insert43 = or disjoint i64 %.sroa.0.0.insert.mask42, %.sroa.0.0.insert.ext41
  %.sroa.0.2.ph76 = inttoptr i64 %.sroa.0.0.insert.insert43 to ptr
  %46 = call i32 (ptr, i64, ptr, ...) @pg_snprintf(ptr noundef nonnull %43, i64 noundef 20, ptr noundef nonnull @.str.8, i32 noundef %.sink90) #12
  %47 = call i64 @strlen(ptr noundef nonnull dereferenceable(1) %43) #14
  call void @llvm.memcpy.p0.p0.i64(ptr nonnull align 1 %24, ptr nonnull align 1 %43, i64 %47, i1 false)
  call void @free(ptr noundef nonnull %43) #12
  br label %56

48:                                               ; preds = %23
  %49 = load i32, ptr %9, align 4
  %50 = call ptr @pgtypes_alloc(i64 noundef 20) #12
  %.not64.not = icmp eq ptr %50, null
  br i1 %.not64.not, label %.critedge, label %51

51:                                               ; preds = %48
  %52 = ptrtoint ptr %.sroa.0.184 to i64
  %.sroa.0.0.insert.mask38 = and i64 %52, -4294967296
  %.sroa.0.0.insert.ext37 = zext i32 %49 to i64
  %.sroa.0.0.insert.insert39 = or disjoint i64 %.sroa.0.0.insert.mask38, %.sroa.0.0.insert.ext37
  %53 = inttoptr i64 %.sroa.0.0.insert.insert39 to ptr
  %54 = call i32 (ptr, i64, ptr, ...) @pg_snprintf(ptr noundef nonnull %50, i64 noundef 20, ptr noundef nonnull @.str.9, i32 noundef %49) #12
  %55 = call i64 @strlen(ptr noundef nonnull dereferenceable(1) %50) #14
  call void @llvm.memcpy.p0.p0.i64(ptr nonnull align 1 %24, ptr nonnull align 1 %50, i64 %55, i1 false)
  call void @free(ptr noundef nonnull %50) #12
  br label %56

56:                                               ; preds = %51, %44, %40
  %.sroa.0.274 = phi ptr [ %53, %51 ], [ %.sroa.0.2.ph76, %44 ], [ %.sroa.0.2.ph, %40 ]
  %57 = call ptr @strstr(ptr noundef nonnull dereferenceable(1) %2, ptr noundef nonnull dereferenceable(1) %18) #14
  %.not63 = icmp eq ptr %57, null
  br i1 %.not63, label %._crit_edge, label %23, !llvm.loop !3

._crit_edge:                                      ; preds = %56, %.preheader
  %.sroa.0.1.lcssa = phi ptr [ %.sroa.0.086, %.preheader ], [ %.sroa.0.274, %56 ]
  %indvars.iv.next = add nuw nsw i64 %indvars.iv, 1
  %58 = getelementptr inbounds nuw [7 x %struct.anon], ptr @PGTYPESdate_fmt_asc.mapping, i64 0, i64 %indvars.iv.next
  %59 = load ptr, ptr %58, align 16
  %exitcond = icmp eq i64 %indvars.iv.next, 6
  br i1 %exitcond, label %.critedge, label %.preheader, !llvm.loop !5

.critedge:                                        ; preds = %._crit_edge, %48, %42
  %.4 = phi i32 [ -1, %42 ], [ -1, %48 ], [ 0, %._crit_edge ]
  call void @llvm.lifetime.end.p0(i64 56, ptr nonnull %4) #12
  ret i32 %.4
}